target datalayout = "e-m:e-p270:32:32-p271:32:32-p272:64:64-i64:64-i128:128-f80:128-n8:16:32:64-S128"
target triple = "x86_64-pc-linux-gnu"

@rb_eTypeError = external global i64, align 8
@rb_cNumeric = external global i64, align 8
@.str.20 = private unnamed_addr constant [6 x i8] c"Float\00", align 1
@.str.157 = private unnamed_addr constant [30 x i8] c"can't convert %li\0B into Float\00", align 1

; Function Attrs: nounwind sspstrong uwtable
define internal i64 @numeric_to_float(i64 noundef %0) #0 {
  %2 = alloca i64, align 8
  store i64 %0, ptr %2, align 8, !tbaa !11
  %3 = load i64, ptr %2, align 8, !tbaa !11
  %4 = load i64, ptr @rb_cNumeric, align 8, !tbaa !11
  %5 = call i64 @rb_obj_is_kind_of(i64 noundef %3, i64 noundef %4)
  %6 = icmp ne i64 %5, 0
  br i1 %6, label %11, label %7

7:                                                ; preds = %1
  %8 = load i64, ptr @rb_eTypeError, align 8, !tbaa !11
  %9 = load i64, ptr %2, align 8, !tbaa !11
  %10 = call i64 @rb_obj_class(i64 noundef %9)
  call void (i64, ptr, ...) @rb_raise(i64 noundef %8, ptr noundef @.str.157, i64 noundef %10) #31
  unreachable

11:                                               ; preds = %1
  %12 = load i64, ptr %2, align 8, !tbaa !11
  %13 = call i64 @rb_convert_type_with_id(i64 noundef %12, i32 noundef 4, ptr noundef @.str.20, i64 noundef 3393)
  ret i64 %13
}

; Function Attrs: nounwind sspstrong uwtable
define dso_local i64 @rb_to_float(i64 noundef %0) #0 {
  %2 = alloca i64, align 8
  %3 = alloca i64, align 8
  store i64 %0, ptr %3, align 8, !tbaa !11
  %4 = call i32 @to_float(ptr noundef %3, i32 noundef 1)
  switch i32 %4, label %7 [
    i32 4, label %5
  ]

5:                                                ; preds = %1
  %6 = load i64, ptr %3, align 8, !tbaa !11
  store i64 %6, ptr %2, align 8
  br label %10

7:                                                ; preds = %1
  %8 = load i64, ptr %3, align 8, !tbaa !11
  %9 = call i64 @numeric_to_float(i64 noundef %8)
  store i64 %9, ptr %2, align 8
  br label %10

10:                                               ; preds = %7, %5
  %11 = load i64, ptr %2, align 8
  ret i64 %11
}