; Function Attrs: nounwind sspstrong uwtable
define dso_local i64 @rb_to_float(i64 noundef %0) local_unnamed_addr #2 {
  %2 = alloca i64, align 8
  store i64 %0, ptr %2, align 8, !tbaa !7
  %3 = call fastcc i32 @to_float(ptr noundef %2, i32 noundef 1)
  %cond = icmp eq i32 %3, 4
  %4 = load i64, ptr %2, align 8, !tbaa !7
  br i1 %cond, label %12, label %5

5:                                                ; preds = %1
  %6 = load i64, ptr @rb_cNumeric, align 8, !tbaa !7
  %7 = tail call i64 @rb_obj_is_kind_of(i64 noundef %4, i64 noundef %6)
  %.not.i = icmp eq i64 %7, 0
  br i1 %.not.i, label %8, label %numeric_to_float.exit

8:                                                ; preds = %5
  %9 = load i64, ptr @rb_eTypeError, align 8, !tbaa !7
  %10 = tail call i64 @rb_obj_class(i64 noundef %4)
  tail call void (i64, ptr, ...) @rb_raise(i64 noundef %9, ptr noundef nonnull @.str.157, i64 noundef %10) #24
  unreachable

numeric_to_float.exit:                            ; preds = %5
  %11 = tail call i64 @rb_convert_type_with_id(i64 noundef %4, i32 noundef 4, ptr noundef nonnull @.str.20, i64 noundef 3393)
  br label %12

12:                                               ; preds = %1, %numeric_to_float.exit
  %.0 = phi i64 [ %11, %numeric_to_float.exit ], [ %4, %1 ]
  ret i64 %.0
}